; ModuleID = '58/1286.c'
source_filename = "58/1286.c"
target datalayout = "e-m:e-p270:32:32-p271:32:32-p272:64:64-i64:64-f80:128-n8:16:32:64-S128"
target triple = "x86_64-pc-linux-gnu"

@.str = private unnamed_addr constant [3 x i8] c"1\0A\00", align 1
@.str.1 = private unnamed_addr constant [3 x i8] c"0\0A\00", align 1

; Function Attrs: noinline nounwind uwtable
define dso_local i32 @main() #0 {
  %1 = alloca i32, align 4
  %2 = alloca i32, align 4
  %3 = alloca i32, align 4
  %4 = alloca i32, align 4
  %5 = alloca [3 x i8], align 1
  %6 = alloca [100 x [81 x i8]], align 16
  %7 = alloca i32, align 4
  store i32 0, i32* %1, align 4
  %8 = getelementptr inbounds [3 x i8], [3 x i8]* %5, i64 0, i64 0
  %9 = call i32 (i8*, ...) bitcast (i32 (...)* @gets to i32 (i8*, ...)*)(i8* %8)
  %10 = getelementptr inbounds [3 x i8], [3 x i8]* %5, i64 0, i64 0
  %11 = call i32 @atoi(i8* %10) #3
  store i32 %11, i32* %4, align 4
  store i32 0, i32* %2, align 4
  br label %12

12:                                               ; preds = %165, %0
  %13 = load i32, i32* %2, align 4
  %14 = load i32, i32* %4, align 4
  %15 = icmp slt i32 %13, %14
  br i1 %15, label %16, label %168

16:                                               ; preds = %12
  %17 = load i32, i32* %2, align 4
  %18 = sext i32 %17 to i64
  %19 = getelementptr inbounds [100 x [81 x i8]], [100 x [81 x i8]]* %6, i64 0, i64 %18
  %20 = getelementptr inbounds [81 x i8], [81 x i8]* %19, i64 0, i64 0
  %21 = call i32 (i8*, ...) bitcast (i32 (...)* @gets to i32 (i8*, ...)*)(i8* %20)
  store i32 0, i32* %7, align 4
  %22 = load i32, i32* %2, align 4
  %23 = sext i32 %22 to i64
  %24 = getelementptr inbounds [100 x [81 x i8]], [100 x [81 x i8]]* %6, i64 0, i64 %23
  %25 = getelementptr inbounds [81 x i8], [81 x i8]* %24, i64 0, i64 0
  %26 = load i8, i8* %25, align 1
  %27 = sext i8 %26 to i32
  %28 = icmp eq i32 %27, 95
  br i1 %28, label %61, label %29

29:                                               ; preds = %16
  %30 = load i32, i32* %2, align 4
  %31 = sext i32 %30 to i64
  %32 = getelementptr inbounds [100 x [81 x i8]], [100 x [81 x i8]]* %6, i64 0, i64 %31
  %33 = getelementptr inbounds [81 x i8], [81 x i8]* %32, i64 0, i64 0
  %34 = load i8, i8* %33, align 1
  %35 = sext i8 %34 to i32
  %36 = icmp slt i32 64, %35
  br i1 %36, label %37, label %45

37:                                               ; preds = %29
  %38 = load i32, i32* %2, align 4
  %39 = sext i32 %38 to i64
  %40 = getelementptr inbounds [100 x [81 x i8]], [100 x [81 x i8]]* %6, i64 0, i64 %39
  %41 = getelementptr inbounds [81 x i8], [81 x i8]* %40, i64 0, i64 0
  %42 = load i8, i8* %41, align 1
  %43 = sext i8 %42 to i32
  %44 = icmp slt i32 %43, 91
  br i1 %44, label %61, label %45

45:                                               ; preds = %37, %29
  %46 = load i32, i32* %2, align 4
  %47 = sext i32 %46 to i64
  %48 = getelementptr inbounds [100 x [81 x i8]], [100 x [81 x i8]]* %6, i64 0, i64 %47
  %49 = getelementptr inbounds [81 x i8], [81 x i8]* %48, i64 0, i64 0
  %50 = load i8, i8* %49, align 1
  %51 = sext i8 %50 to i32
  %52 = icmp slt i32 96, %51
  br i1 %52, label %53, label %162

53:                                               ; preds = %45
  %54 = load i32, i32* %2, align 4
  %55 = sext i32 %54 to i64
  %56 = getelementptr inbounds [100 x [81 x i8]], [100 x [81 x i8]]* %6, i64 0, i64 %55
  %57 = getelementptr inbounds [81 x i8], [81 x i8]* %56, i64 0, i64 0
  %58 = load i8, i8* %57, align 1
  %59 = sext i8 %58 to i32
  %60 = icmp slt i32 %59, 123
  br i1 %60, label %61, label %162

61:                                               ; preds = %53, %37, %16
  store i32 0, i32* %3, align 4
  br label %62

62:                                               ; preds = %145, %61
  %63 = load i32, i32* %3, align 4
  %64 = sext i32 %63 to i64
  %65 = load i32, i32* %2, align 4
  %66 = sext i32 %65 to i64
  %67 = getelementptr inbounds [100 x [81 x i8]], [100 x [81 x i8]]* %6, i64 0, i64 %66
  %68 = getelementptr inbounds [81 x i8], [81 x i8]* %67, i64 0, i64 0
  %69 = call i64 @strlen(i8* %68) #3
  %70 = icmp ult i64 %64, %69
  br i1 %70, label %71, label %148

71:                                               ; preds = %62
  %72 = load i32, i32* %2, align 4
  %73 = sext i32 %72 to i64
  %74 = getelementptr inbounds [100 x [81 x i8]], [100 x [81 x i8]]* %6, i64 0, i64 %73
  %75 = load i32, i32* %3, align 4
  %76 = sext i32 %75 to i64
  %77 = getelementptr inbounds [81 x i8], [81 x i8]* %74, i64 0, i64 %76
  %78 = load i8, i8* %77, align 1
  %79 = sext i8 %78 to i32
  %80 = icmp slt i32 47, %79
  br i1 %80, label %81, label %91

81:                                               ; preds = %71
  %82 = load i32, i32* %2, align 4
  %83 = sext i32 %82 to i64
  %84 = getelementptr inbounds [100 x [81 x i8]], [100 x [81 x i8]]* %6, i64 0, i64 %83
  %85 = load i32, i32* %3, align 4
  %86 = sext i32 %85 to i64
  %87 = getelementptr inbounds [81 x i8], [81 x i8]* %84, i64 0, i64 %86
  %88 = load i8, i8* %87, align 1
  %89 = sext i8 %88 to i32
  %90 = icmp slt i32 %89, 58
  br i1 %90, label %141, label %91

91:                                               ; preds = %81, %71
  %92 = load i32, i32* %2, align 4
  %93 = sext i32 %92 to i64
  %94 = getelementptr inbounds [100 x [81 x i8]], [100 x [81 x i8]]* %6, i64 0, i64 %93
  %95 = load i32, i32* %3, align 4
  %96 = sext i32 %95 to i64
  %97 = getelementptr inbounds [81 x i8], [81 x i8]* %94, i64 0, i64 %96
  %98 = load i8, i8* %97, align 1
  %99 = sext i8 %98 to i32
  %100 = icmp slt i32 64, %99
  br i1 %100, label %101, label %111

101:                                              ; preds = %91
  %102 = load i32, i32* %2, align 4
  %103 = sext i32 %102 to i64
  %104 = getelementptr inbounds [100 x [81 x i8]], [100 x [81 x i8]]* %6, i64 0, i64 %103
  %105 = load i32, i32* %3, align 4
  %106 = sext i32 %105 to i64
  %107 = getelementptr inbounds [81 x i8], [81 x i8]* %104, i64 0, i64 %106
  %108 = load i8, i8* %107, align 1
  %109 = sext i8 %108 to i32
  %110 = icmp slt i32 %109, 91
  br i1 %110, label %141, label %111

111:                                              ; preds = %101, %91
  %112 = load i32, i32* %2, align 4
  %113 = sext i32 %112 to i64
  %114 = getelementptr inbounds [100 x [81 x i8]], [100 x [81 x i8]]* %6, i64 0, i64 %113
  %115 = load i32, i32* %3, align 4
  %116 = sext i32 %115 to i64
  %117 = getelementptr inbounds [81 x i8], [81 x i8]* %114, i64 0, i64 %116
  %118 = load i8, i8* %117, align 1
  %119 = sext i8 %118 to i32
  %120 = icmp slt i32 96, %119
  br i1 %120, label %121, label %131

121:                                              ; preds = %111
  %122 = load i32, i32* %2, align 4
  %123 = sext i32 %122 to i64
  %124 = getelementptr inbounds [100 x [81 x i8]], [100 x [81 x i8]]* %6, i64 0, i64 %123
  %125 = load i32, i32* %3, align 4
  %126 = sext i32 %125 to i64
  %127 = getelementptr inbounds [81 x i8], [81 x i8]* %124, i64 0, i64 %126
  %128 = load i8, i8* %127, align 1
  %129 = sext i8 %128 to i32
  %130 = icmp slt i32 %129, 123
  br i1 %130, label %141, label %131

131:                                              ; preds = %121, %111
  %132 = load i32, i32* %2, align 4
  %133 = sext i32 %132 to i64
  %134 = getelementptr inbounds [100 x [81 x i8]], [100 x [81 x i8]]* %6, i64 0, i64 %133
  %135 = load i32, i32* %3, align 4
  %136 = sext i32 %135 to i64
  %137 = getelementptr inbounds [81 x i8], [81 x i8]* %134, i64 0, i64 %136
  %138 = load i8, i8* %137, align 1
  %139 = sext i8 %138 to i32
  %140 = icmp eq i32 %139, 95
  br i1 %140, label %141, label %144

141:                                              ; preds = %131, %121, %101, %81
  %142 = load i32, i32* %7, align 4
  %143 = add nsw i32 %142, 1
  store i32 %143, i32* %7, align 4
  br label %144

144:                                              ; preds = %141, %131
  br label %145

145:                                              ; preds = %144
  %146 = load i32, i32* %3, align 4
  %147 = add nsw i32 %146, 1
  store i32 %147, i32* %3, align 4
  br label %62

148:                                              ; preds = %62
  %149 = load i32, i32* %7, align 4
  %150 = sext i32 %149 to i64
  %151 = load i32, i32* %2, align 4
  %152 = sext i32 %151 to i64
  %153 = getelementptr inbounds [100 x [81 x i8]], [100 x [81 x i8]]* %6, i64 0, i64 %152
  %154 = getelementptr inbounds [81 x i8], [81 x i8]* %153, i64 0, i64 0
  %155 = call i64 @strlen(i8* %154) #3
  %156 = icmp eq i64 %150, %155
  br i1 %156, label %157, label %159

157:                                              ; preds = %148
  %158 = call i32 (i8*, ...) @printf(i8* getelementptr inbounds ([3 x i8], [3 x i8]* @.str, i64 0, i64 0))
  br label %161

159:                                              ; preds = %148
  %160 = call i32 (i8*, ...) @printf(i8* getelementptr inbounds ([3 x i8], [3 x i8]* @.str.1, i64 0, i64 0))
  br label %161

161:                                              ; preds = %159, %157
  br label %164

162:                                              ; preds = %53, %45
  %163 = call i32 (i8*, ...) @printf(i8* getelementptr inbounds ([3 x i8], [3 x i8]* @.str.1, i64 0, i64 0))
  br label %164

164:                                              ; preds = %162, %161
  br label %165

165:                                              ; preds = %164
  %166 = load i32, i32* %2, align 4
  %167 = add nsw i32 %166, 1
  store i32 %167, i32* %2, align 4
  br label %12

168:                                              ; preds = %12
  %169 = load i32, i32* %1, align 4
  ret i32 %169
}

declare dso_local i32 @gets(...) #1

; Function Attrs: nounwind readonly
declare dso_local i32 @atoi(i8*) #2

; Function Attrs: nounwind readonly
declare dso_local i64 @strlen(i8*) #2

declare dso_local i32 @printf(i8*, ...) #1


!llvm.module.flags = !{!0}
!llvm.ident = !{!1}

!0 = !{i32 1, !"wchar_size", i32 4}
!1 = !{!"clang version 10.0.0-4ubuntu1 "}
